target datalayout = "e-m:e-p270:32:32-p271:32:32-p272:64:64-i64:64-i128:128-f80:128-n8:16:32:64-S128"
target triple = "x86_64-unknown-linux-gnu"

%class.grobner = type <{ %struct.grobner_stats, ptr, ptr, %class.arith_util, %class.obj_map, %"struct.grobner::var_lt", %"struct.grobner::monomial_lt", %class.obj_hashtable, %class.obj_hashtable, %class.ptr_vector, %class.ptr_vector, i8, [7 x i8], ptr, %class.svector, %class.ptr_vector.3, %class.ptr_vector.3, %class.ptr_vector.5, %class.ptr_vector.5, i32, [4 x i8] }>
%struct.grobner_stats = type { i64, i64, i64, i64 }
%class.arith_util = type { ptr, ptr }
%class.obj_map = type { %class.core_hashtable }
%class.core_hashtable = type <{ ptr, i32, i32, i32, [4 x i8] }>
%"struct.grobner::var_lt" = type { ptr }
%"struct.grobner::monomial_lt" = type { ptr }
%class.obj_hashtable = type { %class.core_hashtable.base.1, [4 x i8] }
%class.core_hashtable.base.1 = type <{ ptr, i32, i32, i32 }>
%class.ptr_vector = type { %class.vector }
%class.vector = type { ptr }
%class.svector = type { %class.vector.2 }
%class.vector.2 = type { ptr }
%class.ptr_vector.3 = type { %class.vector.4 }
%class.vector.4 = type { ptr }
%class.ptr_vector.5 = type { %class.vector.6 }
%class.vector.6 = type { ptr }

; Function Attrs: mustprogress nounwind uwtable
define hidden void @_ZN7grobner18compute_basis_initEv(ptr noundef nonnull align 8 dereferenceable(228) %this) #5 align 2 {
entry:
  %this.addr = alloca ptr, align 8
  store ptr %this, ptr %this.addr, align 8
  %this1 = load ptr, ptr %this.addr, align 8
  %m_stats = getelementptr inbounds %class.grobner, ptr %this1, i32 0, i32 0
  %m_compute_basis = getelementptr inbounds %struct.grobner_stats, ptr %m_stats, i32 0, i32 2
  %0 = load i64, ptr %m_compute_basis, align 8
  %inc = add nsw i64 %0, 1
  store i64 %inc, ptr %m_compute_basis, align 8
  %m_num_new_equations = getelementptr inbounds %class.grobner, ptr %this1, i32 0, i32 19
  store i32 0, ptr %m_num_new_equations, align 8
  ret void
}