; Function Attrs: mustprogress nofree norecurse nosync nounwind willreturn memory(argmem: readwrite) uwtable
define hidden void @_ZN7grobner18compute_basis_initEv(ptr nocapture noundef nonnull align 8 dereferenceable(228) %this) local_unnamed_addr #9 align 2 {
entry:
  %m_compute_basis = getelementptr inbounds i8, ptr %this, i64 16
  %0 = load i64, ptr %m_compute_basis, align 8
  %inc = add nsw i64 %0, 1
  store i64 %inc, ptr %m_compute_basis, align 8
  %m_num_new_equations = getelementptr inbounds i8, ptr %this, i64 224
  store i32 0, ptr %m_num_new_equations, align 8
  ret void
}